target datalayout = "e-m:e-p270:32:32-p271:32:32-p272:64:64-i64:64-i128:128-f80:128-n8:16:32:64-S128"
target triple = "x86_64-unknown-linux-gnu"

%"class.llvh::raw_ostream" = type <{ ptr, ptr, ptr, ptr, i32, [4 x i8] }>

; Function Attrs: mustprogress nounwind uwtable
define hidden void @_ZN4llvh11raw_ostream14copy_to_bufferEPKcm(ptr noundef nonnull align 8 dereferenceable(36) %this, ptr noundef %Ptr, i64 noundef %Size) #0 align 2 {
entry:
  %this.addr = alloca ptr, align 8
  %Ptr.addr = alloca ptr, align 8
  %Size.addr = alloca i64, align 8
  store ptr %this, ptr %this.addr, align 8
  store ptr %Ptr, ptr %Ptr.addr, align 8
  store i64 %Size, ptr %Size.addr, align 8
  %this1 = load ptr, ptr %this.addr, align 8
  %0 = load i64, ptr %Size.addr, align 8
  switch i64 %0, label %sw.default [
    i64 4, label %sw.bb
    i64 3, label %sw.bb3
    i64 2, label %sw.bb7
    i64 1, label %sw.bb11
    i64 0, label %sw.bb15
  ]

sw.bb:                                            ; preds = %entry
  %1 = load ptr, ptr %Ptr.addr, align 8
  %arrayidx = getelementptr inbounds i8, ptr %1, i64 3
  %2 = load i8, ptr %arrayidx, align 1
  %OutBufCur = getelementptr inbounds %"class.llvh::raw_ostream", ptr %this1, i32 0, i32 3
  %3 = load ptr, ptr %OutBufCur, align 8
  %arrayidx2 = getelementptr inbounds i8, ptr %3, i64 3
  store i8 %2, ptr %arrayidx2, align 1
  br label %sw.bb3

sw.bb3:                                           ; preds = %sw.bb, %entry
  %4 = load ptr, ptr %Ptr.addr, align 8
  %arrayidx4 = getelementptr inbounds i8, ptr %4, i64 2
  %5 = load i8, ptr %arrayidx4, align 1
  %OutBufCur5 = getelementptr inbounds %"class.llvh::raw_ostream", ptr %this1, i32 0, i32 3
  %6 = load ptr, ptr %OutBufCur5, align 8
  %arrayidx6 = getelementptr inbounds i8, ptr %6, i64 2
  store i8 %5, ptr %arrayidx6, align 1
  br label %sw.bb7

sw.bb7:                                           ; preds = %sw.bb3, %entry
  %7 = load ptr, ptr %Ptr.addr, align 8
  %arrayidx8 = getelementptr inbounds i8, ptr %7, i64 1
  %8 = load i8, ptr %arrayidx8, align 1
  %OutBufCur9 = getelementptr inbounds %"class.llvh::raw_ostream", ptr %this1, i32 0, i32 3
  %9 = load ptr, ptr %OutBufCur9, align 8
  %arrayidx10 = getelementptr inbounds i8, ptr %9, i64 1
  store i8 %8, ptr %arrayidx10, align 1
  br label %sw.bb11

sw.bb11:                                          ; preds = %sw.bb7, %entry
  %10 = load ptr, ptr %Ptr.addr, align 8
  %arrayidx12 = getelementptr inbounds i8, ptr %10, i64 0
  %11 = load i8, ptr %arrayidx12, align 1
  %OutBufCur13 = getelementptr inbounds %"class.llvh::raw_ostream", ptr %this1, i32 0, i32 3
  %12 = load ptr, ptr %OutBufCur13, align 8
  %arrayidx14 = getelementptr inbounds i8, ptr %12, i64 0
  store i8 %11, ptr %arrayidx14, align 1
  br label %sw.bb15

sw.bb15:                                          ; preds = %sw.bb11, %entry
  br label %sw.epilog

sw.default:                                       ; preds = %entry
  %OutBufCur16 = getelementptr inbounds %"class.llvh::raw_ostream", ptr %this1, i32 0, i32 3
  %13 = load ptr, ptr %OutBufCur16, align 8
  %14 = load ptr, ptr %Ptr.addr, align 8
  %15 = load i64, ptr %Size.addr, align 8
  call void @llvm.memcpy.p0.p0.i64(ptr align 1 %13, ptr align 1 %14, i64 %15, i1 false)
  br label %sw.epilog

sw.epilog:                                        ; preds = %sw.default, %sw.bb15
  %16 = load i64, ptr %Size.addr, align 8
  %OutBufCur17 = getelementptr inbounds %"class.llvh::raw_ostream", ptr %this1, i32 0, i32 3
  %17 = load ptr, ptr %OutBufCur17, align 8
  %add.ptr = getelementptr inbounds i8, ptr %17, i64 %16
  store ptr %add.ptr, ptr %OutBufCur17, align 8
  ret void
}