; Function Attrs: mustprogress nofree norecurse nosync nounwind willreturn memory(readwrite, inaccessiblemem: none) uwtable
define hidden void @_ZN4llvh11raw_ostream14copy_to_bufferEPKcm(ptr nocapture noundef nonnull align 8 dereferenceable(36) %this, ptr nocapture noundef readonly %Ptr, i64 noundef %Size) local_unnamed_addr #6 align 2 {
entry:
  switch i64 %Size, label %sw.default [
    i64 4, label %sw.bb
    i64 3, label %sw.bb3
    i64 2, label %sw.bb7
    i64 1, label %sw.bb11
    i64 0, label %sw.epilog
  ]

sw.bb:                                            ; preds = %entry
  %arrayidx = getelementptr inbounds i8, ptr %Ptr, i64 3
  %0 = load i8, ptr %arrayidx, align 1
  %OutBufCur = getelementptr inbounds i8, ptr %this, i64 24
  %1 = load ptr, ptr %OutBufCur, align 8
  %arrayidx2 = getelementptr inbounds i8, ptr %1, i64 3
  store i8 %0, ptr %arrayidx2, align 1
  br label %sw.bb3

sw.bb3:                                           ; preds = %sw.bb, %entry
  %arrayidx4 = getelementptr inbounds i8, ptr %Ptr, i64 2
  %2 = load i8, ptr %arrayidx4, align 1
  %OutBufCur5 = getelementptr inbounds i8, ptr %this, i64 24
  %3 = load ptr, ptr %OutBufCur5, align 8
  %arrayidx6 = getelementptr inbounds i8, ptr %3, i64 2
  store i8 %2, ptr %arrayidx6, align 1
  br label %sw.bb7

sw.bb7:                                           ; preds = %sw.bb3, %entry
  %arrayidx8 = getelementptr inbounds i8, ptr %Ptr, i64 1
  %4 = load i8, ptr %arrayidx8, align 1
  %OutBufCur9 = getelementptr inbounds i8, ptr %this, i64 24
  %5 = load ptr, ptr %OutBufCur9, align 8
  %arrayidx10 = getelementptr inbounds i8, ptr %5, i64 1
  store i8 %4, ptr %arrayidx10, align 1
  br label %sw.bb11

sw.bb11:                                          ; preds = %sw.bb7, %entry
  %6 = load i8, ptr %Ptr, align 1
  %OutBufCur13 = getelementptr inbounds i8, ptr %this, i64 24
  %7 = load ptr, ptr %OutBufCur13, align 8
  store i8 %6, ptr %7, align 1
  br label %sw.epilog

sw.default:                                       ; preds = %entry
  %OutBufCur16 = getelementptr inbounds i8, ptr %this, i64 24
  %8 = load ptr, ptr %OutBufCur16, align 8
  tail call void @llvm.memcpy.p0.p0.i64(ptr align 1 %8, ptr align 1 %Ptr, i64 %Size, i1 false)
  br label %sw.epilog

sw.epilog:                                        ; preds = %entry, %sw.bb11, %sw.default
  %OutBufCur17 = getelementptr inbounds i8, ptr %this, i64 24
  %9 = load ptr, ptr %OutBufCur17, align 8
  %add.ptr = getelementptr inbounds i8, ptr %9, i64 %Size
  store ptr %add.ptr, ptr %OutBufCur17, align 8
  ret void
}